-----BEGIN PRIVATE KEY-----
MIIEvgIBADANBgkqhkiG9w0BAQEFAASCBKgwggSkAgEAAoIBAQDRtzM6y3q3z5wt
2I3XCNLzKSKe2+EXWd74c6sCDUNkpwY2nxcxi+iC/prLTehwZY/EDNGFOYaJqsQ8
34utI2vG+joJbfiAcirttLlfZxH8NcP6hn79weueNwLm63wTWbENiLYV0JN8OE3E
fGocR5EOgJBSIx0zHbxDfARZndx7mautCxByU1ceE/AF/pY3SGUvmR2TcQ7uZBb3
MlSd+qbJmL9tjrYlG89pPZj2dzt9MK/8foLo2gWKlyNtFB49iaC8JHvTMnEogNzL
UbsPjMbciRntXsAY1VZFqYCpye0N3NqEZd43uHlZdnRBVar/CAXll81dig/x/TE8
/8lL6BnZAgMBAAECggEBAJCBw2xFH/eeuEijCwHck7d4ZeG/M3hqtgjPc0vDpeeq
a86hi1LZzErPdAyZT4x7fzgheRJrFDiykew8Qbv5R1/htrIes/iWMtx/BqkllbAL
wFJV8RWcVWY9E+PY6jNPP4BK7uVTRv12sqes71UzP1IV5tyiU5GQcNSzlS/HZlFH
z7zDjp4hDHnDq9is+Bihp67+uzCAePvbsT2+LSJ7Abc1j6tD0caplBh5Cn6823/p
t9VRh7b/3T2utFpes7ZQssBdu0tjwAzzoAOG7FLB5MKeX/kbfGwl/TyQkxbmHFSl
F6zrnDt4x98VxzSA7abw7zehYvN1FsRdiGhDJ6LfKAECgYEA9T6YgW5lKAQpHk81
bgKGP3w1aAuBoZS+91KNIZp5JOnH6SRwIcbRcyy8WuCryxSsIuJ7MQNz5aXuJ5Sa
1F68F7mE5hTKXkvc5h+/8mEDj4TXZ6+QwtIiKKB/qI4sb1k2pNeccmHTtHobTAkk
k6W2FWaKK44U043VFMsGxo2gONkCgYEA2um3FOd8aBR64OHEonURPMZlEwJYSAHt
SxTF4YUm4kK66RzmSxE285VP+vYgXlwkNGaY4ZfOVAPoOyTGvG0w4a6i8Vz5wVQQ
ADiq7/9D1nbq3QQSBLFvwC6Zr+J3X1D4p95Ne2szMKkyomvm/5MPS6Gfy20l++ZU
OMeBxcNiSQECgYAn4wVkz7KuHncdkd5rxQdWnfoFsRFlWU7x5MBFfd1ELq2v8pg2
NiLsq5L66N2oCvWwOsu0fg5EhIdGcrn33myTIz5FOY5sZcRIvVM3taWhmwZ5u6k8
tnaNywTYQj9h4M2tY8/zHowTJ2T3KemEBgimVGYWjWY/viqw1hCFDJXJiQKBgHej
rXxOOu6C6tkGajnDMyV84/ZsnKTV8MLM2oyzAZo8j/wg4Dd8dATRwIFOjEgloV/G
Bp2cIpZGAGB6a+bE4iclE0ZH4vNmpswILFu3rXKDUT5zIAnSk1l73mCCq2y7Svor
gzsFTle00Mh1oixhScWy0isSPuUZb0QMvP7BFnEBAoGBAK6/U1ylZmrYtKNJviFz
Oxfh9D8oYN5LeNFvLttKnzXcNN5xYPsnS+ZMxMdT5PJMXHhwpB/wd8G5rQVI1qwT
X7ZAC4ylSIGkhdYdZqnCAgiSwOkb2Fj9sROhCIJQ/6fM8sczIkb3ngmKl1SVyInb
LeFa68rxsBY0iGZp1momHQ99
-----END PRIVATE KEY-----
Certificate:
    Data:
        Version: 3 (0x2)
        Serial Number:
            be:06:0b:64:37:c2:a6:cf
    Signature Algorithm: sha256WithRSAEncryption
        Issuer: C=US, ST=California, O=Belkin International, Inc., OU=Belkin International, Inc., CN=linksyssmartwifi.com
        Validity
            Not Before: Jan 20 00:22:04 2022 GMT
            Not After : Jan 18 00:22:04 2032 GMT
        Subject: C=US, ST=California, O=Belkin International, Inc., OU=Belkin International, Inc., CN=linksyssmartwifi.com
        Subject Public Key Info:
            Public Key Algorithm: rsaEncryption
                Public-Key: (2048 bit)
                Modulus:
                    00:d1:b7:33:3a:cb:7a:b7:cf:9c:2d:d8:8d:d7:08:
                    d2:f3:29:22:9e:db:e1:17:59:de:f8:73:ab:02:0d:
                    43:64:a7:06:36:9f:17:31:8b:e8:82:fe:9a:cb:4d:
                    e8:70:65:8f:c4:0c:d1:85:39:86:89:aa:c4:3c:df:
                    8b:ad:23:6b:c6:fa:3a:09:6d:f8:80:72:2a:ed:b4:
                    b9:5f:67:11:fc:35:c3:fa:86:7e:fd:c1:eb:9e:37:
                    02:e6:eb:7c:13:59:b1:0d:88:b6:15:d0:93:7c:38:
                    4d:c4:7c:6a:1c:47:91:0e:80:90:52:23:1d:33:1d:
                    bc:43:7c:04:59:9d:dc:7b:99:ab:ad:0b:10:72:53:
                    57:1e:13:f0:05:fe:96:37:48:65:2f:99:1d:93:71:
                    0e:ee:64:16:f7:32:54:9d:fa:a6:c9:98:bf:6d:8e:
                    b6:25:1b:cf:69:3d:98:f6:77:3b:7d:30:af:fc:7e:
                    82:e8:da:05:8a:97:23:6d:14:1e:3d:89:a0:bc:24:
                    7b:d3:32:71:28:80:dc:cb:51:bb:0f:8c:c6:dc:89:
                    19:ed:5e:c0:18:d5:56:45:a9:80:a9:c9:ed:0d:dc:
                    da:84:65:de:37:b8:79:59:76:74:41:55:aa:ff:08:
                    05:e5:97:cd:5d:8a:0f:f1:fd:31:3c:ff:c9:4b:e8:
                    19:d9
                Exponent: 65537 (0x10001)
        X509v3 extensions:
            X509v3 Basic Constraints: 
                CA:FALSE
            X509v3 Key Usage: 
                Digital Signature, Non Repudiation, Key Encipherment
            X509v3 Subject Alternative Name: 
                DNS:linksyssmartwifi.com, DNS:www.linksyssmartwifi.com, DNS:myrouter.local
    Signature Algorithm: sha256WithRSAEncryption
         08:7b:f3:e6:69:bc:6b:0d:d9:6e:b7:c9:72:4d:67:49:b9:de:
         7c:9c:37:80:fe:37:41:0f:57:94:a9:db:ba:5d:4b:1d:bb:f6:
         f3:62:34:c7:19:ae:55:50:07:42:cc:0a:de:42:25:40:74:c1:
         39:97:1e:8e:da:bd:d8:ea:cb:27:ef:95:df:08:8c:16:b0:5e:
         43:38:a5:ae:db:cc:a3:a6:11:e9:03:a8:0d:4e:27:72:8d:46:
         8c:70:8a:91:2c:10:a0:33:41:3e:e7:a9:b7:cc:91:72:ad:f5:
         8f:50:a0:c2:9a:88:56:d1:be:19:07:79:70:9c:74:94:bf:d0:
         29:1c:8b:a4:cc:32:24:92:4a:24:36:ff:6d:ec:2d:10:83:00:
         b4:4e:fb:3c:ef:06:02:81:fd:78:12:7b:41:ed:f8:dc:a5:22:
         df:ef:77:c8:cc:3d:78:f4:d3:e4:e1:fd:ba:8b:c4:b8:04:00:
         02:6a:38:a9:79:aa:65:81:c7:93:e8:63:6a:7d:32:dc:29:13:
         38:06:12:b7:7f:45:7b:94:32:16:45:95:dd:ad:86:87:84:e7:
         12:bf:1f:3b:4c:59:ed:d8:d9:09:0a:ca:63:af:d6:16:ac:c8:
         12:89:1b:d5:9e:69:72:47:cf:f7:ab:ad:71:1c:2d:35:ff:34:
         1d:69:0b:f1
-----BEGIN CERTIFICATE-----
MIIEADCCAuigAwIBAgIJAL4GC2Q3wqbPMA0GCSqGSIb3DQEBCwUAMIGLMQswCQYD
VQQGEwJVUzETMBEGA1UECBMKQ2FsaWZvcm5pYTEjMCEGA1UEChMaQmVsa2luIElu
dGVybmF0aW9uYWwsIEluYy4xIzAhBgNVBAsTGkJlbGtpbiBJbnRlcm5hdGlvbmFs
LCBJbmMuMR0wGwYDVQQDExRsaW5rc3lzc21hcnR3aWZpLmNvbTAeFw0yMjAxMjAw
MDIyMDRaFw0zMjAxMTgwMDIyMDRaMIGLMQswCQYDVQQGEwJVUzETMBEGA1UECBMK
Q2FsaWZvcm5pYTEjMCEGA1UEChMaQmVsa2luIEludGVybmF0aW9uYWwsIEluYy4x
IzAhBgNVBAsTGkJlbGtpbiBJbnRlcm5hdGlvbmFsLCBJbmMuMR0wGwYDVQQDExRs
aW5rc3lzc21hcnR3aWZpLmNvbTCCASIwDQYJKoZIhvcNAQEBBQADggEPADCCAQoC
ggEBANG3MzrLerfPnC3YjdcI0vMpIp7b4RdZ3vhzqwINQ2SnBjafFzGL6IL+mstN
6HBlj8QM0YU5homqxDzfi60ja8b6Oglt+IByKu20uV9nEfw1w/qGfv3B6543Aubr
fBNZsQ2IthXQk3w4TcR8ahxHkQ6AkFIjHTMdvEN8BFmd3HuZq60LEHJTVx4T8AX+
ljdIZS+ZHZNxDu5kFvcyVJ36psmYv22OtiUbz2k9mPZ3O30wr/x+gujaBYqXI20U
Hj2JoLwke9MycSiA3MtRuw+MxtyJGe1ewBjVVkWpgKnJ7Q3c2oRl3je4eVl2dEFV
qv8IBeWXzV2KD/H9MTz/yUvoGdkCAwEAAaNlMGMwCQYDVR0TBAIwADALBgNVHQ8E
BAMCBeAwSQYDVR0RBEIwQIIUbGlua3N5c3NtYXJ0d2lmaS5jb22CGHd3dy5saW5r
c3lzc21hcnR3aWZpLmNvbYIObXlyb3V0ZXIubG9jYWwwDQYJKoZIhvcNAQELBQAD
ggEBAAh78+ZpvGsN2W63yXJNZ0m53nycN4D+N0EPV5Sp27pdSx279vNiNMcZrlVQ
B0LMCt5CJUB0wTmXHo7avdjqyyfvld8IjBawXkM4pa7bzKOmEekDqA1OJ3KNRoxw
ipEsEKAzQT7nqbfMkXKt9Y9QoMKaiFbRvhkHeXCcdJS/0Ckci6TMMiSSSiQ2/23s
LRCDALRO+zzvBgKB/XgSe0Ht+NylIt/vd8jMPXj00+Th/bqLxLgEAAJqOKl5qmWB
x5PoY2p9MtwpEzgGErd/RXuUMhZFld2thoeE5xK/HztMWe3Y2QkKymOv1hasyBKJ
G9WeaXJHz/errXEcLTX/NB1pC/E=
-----END CERTIFICATE-----
