-----BEGIN PRIVATE KEY-----
MIIEvQIBADANBgkqhkiG9w0BAQEFAASCBKcwggSjAgEAAoIBAQCiv9PC9f8kLJY/
8ChJRPcGP1wXt1mBVubCfPYmRVrpiSnd01TIigMcs+WE7XfTPb361iEwyd132sTw
W0q28NNVwvpmivzIBeV9q/dRpBnGApgJCKt53JTBtrLcY1+QBJRPzR3Ge/BbHh8n
Xw75uN2qQuWDPxZKU+xoDMK6AVaqIFC5/0KjQiTjGO76d/2JM5eEoABbYjSLzm2v
jypSwmSxdfeO39NCibZj8SLuJ23rmhlMQiu18jRzpVpKvDjtwd/gKTKNUuqr7VPq
51dfnCxccZLGQM5ROxtmJLat2EGE2aNZGbaLX5960entHA7OCDoHacjUbTPCtWNk
GFk3+GmBAgMBAAECggEAQQusBgKte3a6gklowIfotr2CABSOmEv0JI0vD/KuOCJS
8k5xV0kZn1IjDHKgbnQBxwvn7gjwE+QCzBGgledAf8lSrMMl7oe0xfqB+UY96s7E
lu+5IRZQ+e8cI0swOW4rHI3dNaP5V2F9kA3E/XeuWEsuUbtYHFLYbGmVNiQs0AdB
JFTeVhREaUyPLfNVom84O0peoywLyS+3+buVXjmqzZmGTky+3FyOvOLsxRPkKvDU
ly/HljGbQI31o5UzJvZ34lKN9itQPJ1dB0WR7kf1V4lGHP6xy8XCkiOhymauNLCz
pcS+/59mWRTfcYfQ0+p3xmVNeSPC8/vALgcD368uMQKBgQDRqNBVYh1E62/SD5Jq
QG0+ezi8aBJtUT7V1d8WYrngQ2f+QVoTu42lpwDCbUtmTneHH3Fdn18T4tJ/Jy7i
sQyeimpILKxEEsp3ingRys78DD89vVHKHIAokMU9QY9sLGkliL8Vgd3OFSvs8o7z
u06pSKKYlCkvzG7BdrQ4q+uYxQKBgQDGuLFoWoAqUciFSO7xR37x8xWZED6dv0+T
EQ9Ak1cOxcx92qmdnyGQ05j0l80r5SMfdky8jfoY+FV1cvHU5sW+qfXrKYFwTnhB
nYEJya2EIvpXtdIgsQQIP5mqwoMtBVXa5yHnw93Er8nuLXMYPc3UQLom2rIzwebt
hL5FIfKBjQKBgQCopZ93nyWmI7BeC5KeD1cQ1HOt8hUohBsETTZXPnEAOZh0SENZ
7hshrfWJb/sfv2ycb6l0QtdrGqByEaXASeS5vuOBTRYA6BCfGe49eaMH0h4o3pnk
9woMF2/hN1RUEmE+BQKYHU+7DwK3ZeGhowDCYSARldSPk2VgD8kmcPxhdQKBgHwv
ERawb6WCpDe+wytezZLvoNCdWTQFSPoT0B8/tEjUDR2dFyAcQMKbqNs5PgsvT0qr
B/tREjimf+k8oqm0aWDkH30M3AnNz9LZVblDIj8QCLflNOIfHPD2pdYTZhwtWGDK
zeJjAWSXoi5IksNUZBs/M9VyF6jGhMRrjufu9fhFAoGAIGi6qCQ/BjmLgM/ZqxL6
uM2E4XEiPNqgEBYlm/PBNKFsHb8xV1IqSlD5fVQRe+JcQDWKlxjJY/QC2+jhSypw
o5dFFSQEBPwvqTeOp1mO1dMMTPs9Gzk5h82OIhR42BooXfox1IqTqldMyCdB8GAC
AnE8NNwV4khaET7Cpp174jY=
-----END PRIVATE KEY-----
Certificate:
    Data:
        Version: 3 (0x2)
        Serial Number:
            c3:7e:10:ca:6e:ab:a1:8b
    Signature Algorithm: sha256WithRSAEncryption
        Issuer: C=US, ST=California, O=Belkin International, Inc., OU=Belkin International, Inc., CN=linksyssmartwifi.com
        Validity
            Not Before: Feb  9 09:56:18 2022 GMT
            Not After : Feb  7 09:56:18 2032 GMT
        Subject: C=US, ST=California, O=Belkin International, Inc., OU=Belkin International, Inc., CN=linksyssmartwifi.com
        Subject Public Key Info:
            Public Key Algorithm: rsaEncryption
                Public-Key: (2048 bit)
                Modulus:
                    00:a2:bf:d3:c2:f5:ff:24:2c:96:3f:f0:28:49:44:
                    f7:06:3f:5c:17:b7:59:81:56:e6:c2:7c:f6:26:45:
                    5a:e9:89:29:dd:d3:54:c8:8a:03:1c:b3:e5:84:ed:
                    77:d3:3d:bd:fa:d6:21:30:c9:dd:77:da:c4:f0:5b:
                    4a:b6:f0:d3:55:c2:fa:66:8a:fc:c8:05:e5:7d:ab:
                    f7:51:a4:19:c6:02:98:09:08:ab:79:dc:94:c1:b6:
                    b2:dc:63:5f:90:04:94:4f:cd:1d:c6:7b:f0:5b:1e:
                    1f:27:5f:0e:f9:b8:dd:aa:42:e5:83:3f:16:4a:53:
                    ec:68:0c:c2:ba:01:56:aa:20:50:b9:ff:42:a3:42:
                    24:e3:18:ee:fa:77:fd:89:33:97:84:a0:00:5b:62:
                    34:8b:ce:6d:af:8f:2a:52:c2:64:b1:75:f7:8e:df:
                    d3:42:89:b6:63:f1:22:ee:27:6d:eb:9a:19:4c:42:
                    2b:b5:f2:34:73:a5:5a:4a:bc:38:ed:c1:df:e0:29:
                    32:8d:52:ea:ab:ed:53:ea:e7:57:5f:9c:2c:5c:71:
                    92:c6:40:ce:51:3b:1b:66:24:b6:ad:d8:41:84:d9:
                    a3:59:19:b6:8b:5f:9f:7a:d1:e9:ed:1c:0e:ce:08:
                    3a:07:69:c8:d4:6d:33:c2:b5:63:64:18:59:37:f8:
                    69:81
                Exponent: 65537 (0x10001)
        X509v3 extensions:
            X509v3 Basic Constraints: 
                CA:FALSE
            X509v3 Key Usage: 
                Digital Signature, Non Repudiation, Key Encipherment
            X509v3 Subject Alternative Name: 
                DNS:linksyssmartwifi.com, DNS:www.linksyssmartwifi.com, DNS:myrouter.local
    Signature Algorithm: sha256WithRSAEncryption
         2a:61:45:49:e2:b5:98:63:1b:ac:1c:44:51:74:3c:94:0a:30:
         b9:c1:e5:87:49:67:d1:2d:c6:fb:14:73:d1:b2:12:16:52:97:
         21:08:14:05:4a:13:9e:20:e7:ac:1a:92:20:a9:af:5a:2b:c6:
         4b:6e:f0:db:5d:8f:87:85:03:f8:64:14:b7:94:53:4d:38:7a:
         d8:0b:4d:f1:b9:07:fa:c6:4f:b9:4f:14:20:16:68:d7:e3:11:
         fc:16:d0:e0:e3:ec:18:92:89:27:e9:f9:32:68:e8:76:97:35:
         ab:c9:75:87:4e:0b:16:f2:45:53:b8:25:3d:d5:dd:1c:12:f5:
         ae:37:1b:55:88:9c:82:51:44:9a:dc:e0:ac:cf:a6:b4:87:40:
         d0:a1:f2:97:73:db:0d:64:39:0b:ec:44:43:b9:55:a1:70:4e:
         9b:73:8e:94:55:10:96:a5:b5:72:61:e7:92:ac:23:d5:dd:39:
         11:93:f1:20:d2:a5:ca:bf:a5:55:50:37:6c:3e:96:12:b0:cd:
         28:d3:cc:f1:c2:ff:58:e2:7a:a1:04:87:2a:ca:af:af:eb:f9:
         c8:1e:3d:55:fb:42:18:f5:24:51:5d:bb:84:ab:e9:16:55:fc:
         62:42:08:b4:d0:db:5b:1c:95:e6:23:96:f2:e0:75:31:be:09:
         05:4a:b5:1b
-----BEGIN CERTIFICATE-----
MIIEADCCAuigAwIBAgIJAMN+EMpuq6GLMA0GCSqGSIb3DQEBCwUAMIGLMQswCQYD
VQQGEwJVUzETMBEGA1UECBMKQ2FsaWZvcm5pYTEjMCEGA1UEChMaQmVsa2luIElu
dGVybmF0aW9uYWwsIEluYy4xIzAhBgNVBAsTGkJlbGtpbiBJbnRlcm5hdGlvbmFs
LCBJbmMuMR0wGwYDVQQDExRsaW5rc3lzc21hcnR3aWZpLmNvbTAeFw0yMjAyMDkw
OTU2MThaFw0zMjAyMDcwOTU2MThaMIGLMQswCQYDVQQGEwJVUzETMBEGA1UECBMK
Q2FsaWZvcm5pYTEjMCEGA1UEChMaQmVsa2luIEludGVybmF0aW9uYWwsIEluYy4x
IzAhBgNVBAsTGkJlbGtpbiBJbnRlcm5hdGlvbmFsLCBJbmMuMR0wGwYDVQQDExRs
aW5rc3lzc21hcnR3aWZpLmNvbTCCASIwDQYJKoZIhvcNAQEBBQADggEPADCCAQoC
ggEBAKK/08L1/yQslj/wKElE9wY/XBe3WYFW5sJ89iZFWumJKd3TVMiKAxyz5YTt
d9M9vfrWITDJ3XfaxPBbSrbw01XC+maK/MgF5X2r91GkGcYCmAkIq3nclMG2stxj
X5AElE/NHcZ78FseHydfDvm43apC5YM/FkpT7GgMwroBVqogULn/QqNCJOMY7vp3
/Ykzl4SgAFtiNIvOba+PKlLCZLF1947f00KJtmPxIu4nbeuaGUxCK7XyNHOlWkq8
OO3B3+ApMo1S6qvtU+rnV1+cLFxxksZAzlE7G2Yktq3YQYTZo1kZtotfn3rR6e0c
Ds4IOgdpyNRtM8K1Y2QYWTf4aYECAwEAAaNlMGMwCQYDVR0TBAIwADALBgNVHQ8E
BAMCBeAwSQYDVR0RBEIwQIIUbGlua3N5c3NtYXJ0d2lmaS5jb22CGHd3dy5saW5r
c3lzc21hcnR3aWZpLmNvbYIObXlyb3V0ZXIubG9jYWwwDQYJKoZIhvcNAQELBQAD
ggEBACphRUnitZhjG6wcRFF0PJQKMLnB5YdJZ9EtxvsUc9GyEhZSlyEIFAVKE54g
56wakiCpr1orxktu8Ntdj4eFA/hkFLeUU004etgLTfG5B/rGT7lPFCAWaNfjEfwW
0ODj7BiSiSfp+TJo6HaXNavJdYdOCxbyRVO4JT3V3RwS9a43G1WInIJRRJrc4KzP
prSHQNCh8pdz2w1kOQvsREO5VaFwTptzjpRVEJaltXJh55KsI9XdORGT8SDSpcq/
pVVQN2w+lhKwzSjTzPHC/1jieqEEhyrKr6/r+cgePVX7Qhj1JFFdu4Sr6RZV/GJC
CLTQ21scleYjlvLgdTG+CQVKtRs=
-----END CERTIFICATE-----
